target datalayout = "e-m:e-p270:32:32-p271:32:32-p272:64:64-i64:64-i128:128-f80:128-n8:16:32:64-S128"
target triple = "x86_64-unknown-linux-gnu"

%struct.hdr_histogram = type { i64, i64, i32, i32, i32, i32, i64, i32, i32, i64, i64, i32, double, i32, i64, ptr }
%struct.hdr_iter = type { ptr, i32, i64, i64, i64, i64, i64, i64, i64, i64, i64, %union.anon, ptr }
%union.anon = type { %struct.hdr_iter_linear }
%struct.hdr_iter_linear = type { i64, i64, i64, i64 }
%struct.hdr_iter_log = type { double, i64, i64, i64 }

; Function Attrs: nounwind uwtable
define internal i32 @count_leading_zeros_64(i64 noundef %value) #0 {
entry:
  %value.addr = alloca i64, align 8
  store i64 %value, ptr %value.addr, align 8
  %0 = load i64, ptr %value.addr, align 8
  %1 = call i64 @llvm.ctlz.i64(i64 %0, i1 true)
  %cast = trunc i64 %1 to i32
  ret i32 %cast
}

; Function Attrs: nounwind uwtable
define dso_local i64 @hdr_value_at_index(ptr noundef %h, i32 noundef %index) #0 {
entry:
  %h.addr = alloca ptr, align 8
  %index.addr = alloca i32, align 4
  %bucket_index = alloca i32, align 4
  %sub_bucket_index = alloca i32, align 4
  store ptr %h, ptr %h.addr, align 8
  store i32 %index, ptr %index.addr, align 4
  %0 = load i32, ptr %index.addr, align 4
  %1 = load ptr, ptr %h.addr, align 8
  %sub_bucket_half_count_magnitude = getelementptr inbounds %struct.hdr_histogram, ptr %1, i32 0, i32 4
  %2 = load i32, ptr %sub_bucket_half_count_magnitude, align 8
  %shr = ashr i32 %0, %2
  %sub = sub nsw i32 %shr, 1
  store i32 %sub, ptr %bucket_index, align 4
  %3 = load i32, ptr %index.addr, align 4
  %4 = load ptr, ptr %h.addr, align 8
  %sub_bucket_half_count = getelementptr inbounds %struct.hdr_histogram, ptr %4, i32 0, i32 5
  %5 = load i32, ptr %sub_bucket_half_count, align 4
  %sub1 = sub nsw i32 %5, 1
  %and = and i32 %3, %sub1
  %6 = load ptr, ptr %h.addr, align 8
  %sub_bucket_half_count2 = getelementptr inbounds %struct.hdr_histogram, ptr %6, i32 0, i32 5
  %7 = load i32, ptr %sub_bucket_half_count2, align 4
  %add = add nsw i32 %and, %7
  store i32 %add, ptr %sub_bucket_index, align 4
  %8 = load i32, ptr %bucket_index, align 4
  %cmp = icmp slt i32 %8, 0
  br i1 %cmp, label %if.then, label %if.end

if.then:                                          ; preds = %entry
  %9 = load ptr, ptr %h.addr, align 8
  %sub_bucket_half_count3 = getelementptr inbounds %struct.hdr_histogram, ptr %9, i32 0, i32 5
  %10 = load i32, ptr %sub_bucket_half_count3, align 4
  %11 = load i32, ptr %sub_bucket_index, align 4
  %sub4 = sub nsw i32 %11, %10
  store i32 %sub4, ptr %sub_bucket_index, align 4
  store i32 0, ptr %bucket_index, align 4
  br label %if.end

if.end:                                           ; preds = %if.then, %entry
  %12 = load i32, ptr %bucket_index, align 4
  %13 = load i32, ptr %sub_bucket_index, align 4
  %14 = load ptr, ptr %h.addr, align 8
  %unit_magnitude = getelementptr inbounds %struct.hdr_histogram, ptr %14, i32 0, i32 2
  %15 = load i32, ptr %unit_magnitude, align 8
  %call = call i64 @value_from_index(i32 noundef %12, i32 noundef %13, i32 noundef %15)
  ret i64 %call
}

; Function Attrs: nounwind uwtable
define internal i64 @value_from_index(i32 noundef %bucket_index, i32 noundef %sub_bucket_index, i32 noundef %unit_magnitude) #0 {
entry:
  %bucket_index.addr = alloca i32, align 4
  %sub_bucket_index.addr = alloca i32, align 4
  %unit_magnitude.addr = alloca i32, align 4
  store i32 %bucket_index, ptr %bucket_index.addr, align 4
  store i32 %sub_bucket_index, ptr %sub_bucket_index.addr, align 4
  store i32 %unit_magnitude, ptr %unit_magnitude.addr, align 4
  %0 = load i32, ptr %sub_bucket_index.addr, align 4
  %conv = sext i32 %0 to i64
  %1 = load i32, ptr %bucket_index.addr, align 4
  %2 = load i32, ptr %unit_magnitude.addr, align 4
  %add = add nsw i32 %1, %2
  %sh_prom = zext i32 %add to i64
  %shl = shl i64 %conv, %sh_prom
  ret i64 %shl
}

; Function Attrs: nounwind uwtable
define internal i32 @get_sub_bucket_index(i64 noundef %value, i32 noundef %bucket_index, i32 noundef %unit_magnitude) #0 {
entry:
  %value.addr = alloca i64, align 8
  %bucket_index.addr = alloca i32, align 4
  %unit_magnitude.addr = alloca i32, align 4
  store i64 %value, ptr %value.addr, align 8
  store i32 %bucket_index, ptr %bucket_index.addr, align 4
  store i32 %unit_magnitude, ptr %unit_magnitude.addr, align 4
  %0 = load i64, ptr %value.addr, align 8
  %1 = load i32, ptr %bucket_index.addr, align 4
  %2 = load i32, ptr %unit_magnitude.addr, align 4
  %add = add nsw i32 %1, %2
  %sh_prom = zext i32 %add to i64
  %shr = ashr i64 %0, %sh_prom
  %conv = trunc i64 %shr to i32
  ret i32 %conv
}

; Function Attrs: nounwind uwtable
define internal i32 @get_bucket_index(ptr noundef %h, i64 noundef %value) #0 {
entry:
  %h.addr = alloca ptr, align 8
  %value.addr = alloca i64, align 8
  %pow2ceiling = alloca i32, align 4
  store ptr %h, ptr %h.addr, align 8
  store i64 %value, ptr %value.addr, align 8
  %0 = load i64, ptr %value.addr, align 8
  %1 = load ptr, ptr %h.addr, align 8
  %sub_bucket_mask = getelementptr inbounds %struct.hdr_histogram, ptr %1, i32 0, i32 6
  %2 = load i64, ptr %sub_bucket_mask, align 8
  %or = or i64 %0, %2
  %call = call i32 @count_leading_zeros_64(i64 noundef %or)
  %sub = sub nsw i32 64, %call
  store i32 %sub, ptr %pow2ceiling, align 4
  %3 = load i32, ptr %pow2ceiling, align 4
  %4 = load ptr, ptr %h.addr, align 8
  %unit_magnitude = getelementptr inbounds %struct.hdr_histogram, ptr %4, i32 0, i32 2
  %5 = load i32, ptr %unit_magnitude, align 8
  %sub1 = sub nsw i32 %3, %5
  %6 = load ptr, ptr %h.addr, align 8
  %sub_bucket_half_count_magnitude = getelementptr inbounds %struct.hdr_histogram, ptr %6, i32 0, i32 4
  %7 = load i32, ptr %sub_bucket_half_count_magnitude, align 8
  %add = add nsw i32 %7, 1
  %sub2 = sub nsw i32 %sub1, %add
  ret i32 %sub2
}

; Function Attrs: nounwind uwtable
define internal i64 @peek_next_value_from_index(ptr noundef %iter) #0 {
entry:
  %iter.addr = alloca ptr, align 8
  store ptr %iter, ptr %iter.addr, align 8
  %0 = load ptr, ptr %iter.addr, align 8
  %h = getelementptr inbounds %struct.hdr_iter, ptr %0, i32 0, i32 0
  %1 = load ptr, ptr %h, align 8
  %2 = load ptr, ptr %iter.addr, align 8
  %counts_index = getelementptr inbounds %struct.hdr_iter, ptr %2, i32 0, i32 1
  %3 = load i32, ptr %counts_index, align 8
  %add = add nsw i32 %3, 1
  %call = call i64 @hdr_value_at_index(ptr noundef %1, i32 noundef %add)
  ret i64 %call
}

; Function Attrs: nounwind uwtable
define internal i64 @lowest_equivalent_value(ptr noundef %h, i64 noundef %value) #0 {
entry:
  %h.addr = alloca ptr, align 8
  %value.addr = alloca i64, align 8
  %bucket_index = alloca i32, align 4
  %sub_bucket_index = alloca i32, align 4
  store ptr %h, ptr %h.addr, align 8
  store i64 %value, ptr %value.addr, align 8
  %0 = load ptr, ptr %h.addr, align 8
  %1 = load i64, ptr %value.addr, align 8
  %call = call i32 @get_bucket_index(ptr noundef %0, i64 noundef %1)
  store i32 %call, ptr %bucket_index, align 4
  %2 = load i64, ptr %value.addr, align 8
  %3 = load i32, ptr %bucket_index, align 4
  %4 = load ptr, ptr %h.addr, align 8
  %unit_magnitude = getelementptr inbounds %struct.hdr_histogram, ptr %4, i32 0, i32 2
  %5 = load i32, ptr %unit_magnitude, align 8
  %call1 = call i32 @get_sub_bucket_index(i64 noundef %2, i32 noundef %3, i32 noundef %5)
  store i32 %call1, ptr %sub_bucket_index, align 4
  %6 = load i32, ptr %bucket_index, align 4
  %7 = load i32, ptr %sub_bucket_index, align 4
  %8 = load ptr, ptr %h.addr, align 8
  %unit_magnitude2 = getelementptr inbounds %struct.hdr_histogram, ptr %8, i32 0, i32 2
  %9 = load i32, ptr %unit_magnitude2, align 8
  %call3 = call i64 @value_from_index(i32 noundef %6, i32 noundef %7, i32 noundef %9)
  ret i64 %call3
}

; Function Attrs: nounwind uwtable
define internal void @update_iterated_values(ptr noundef %iter, i64 noundef %new_value_iterated_to) #0 {
entry:
  %iter.addr = alloca ptr, align 8
  %new_value_iterated_to.addr = alloca i64, align 8
  store ptr %iter, ptr %iter.addr, align 8
  store i64 %new_value_iterated_to, ptr %new_value_iterated_to.addr, align 8
  %0 = load ptr, ptr %iter.addr, align 8
  %value_iterated_to = getelementptr inbounds %struct.hdr_iter, ptr %0, i32 0, i32 10
  %1 = load i64, ptr %value_iterated_to, align 8
  %2 = load ptr, ptr %iter.addr, align 8
  %value_iterated_from = getelementptr inbounds %struct.hdr_iter, ptr %2, i32 0, i32 9
  store i64 %1, ptr %value_iterated_from, align 8
  %3 = load i64, ptr %new_value_iterated_to.addr, align 8
  %4 = load ptr, ptr %iter.addr, align 8
  %value_iterated_to1 = getelementptr inbounds %struct.hdr_iter, ptr %4, i32 0, i32 10
  store i64 %3, ptr %value_iterated_to1, align 8
  ret void
}

; Function Attrs: nounwind uwtable
define internal zeroext i1 @next_value_greater_than_reporting_level_upper_bound(ptr noundef %iter, i64 noundef %reporting_level_upper_bound) #0 {
entry:
  %retval = alloca i1, align 1
  %iter.addr = alloca ptr, align 8
  %reporting_level_upper_bound.addr = alloca i64, align 8
  store ptr %iter, ptr %iter.addr, align 8
  store i64 %reporting_level_upper_bound, ptr %reporting_level_upper_bound.addr, align 8
  %0 = load ptr, ptr %iter.addr, align 8
  %counts_index = getelementptr inbounds %struct.hdr_iter, ptr %0, i32 0, i32 1
  %1 = load i32, ptr %counts_index, align 8
  %2 = load ptr, ptr %iter.addr, align 8
  %h = getelementptr inbounds %struct.hdr_iter, ptr %2, i32 0, i32 0
  %3 = load ptr, ptr %h, align 8
  %counts_len = getelementptr inbounds %struct.hdr_histogram, ptr %3, i32 0, i32 13
  %4 = load i32, ptr %counts_len, align 8
  %cmp = icmp sge i32 %1, %4
  br i1 %cmp, label %if.then, label %if.end

if.then:                                          ; preds = %entry
  store i1 false, ptr %retval, align 1
  br label %return

if.end:                                           ; preds = %entry
  %5 = load ptr, ptr %iter.addr, align 8
  %call = call i64 @peek_next_value_from_index(ptr noundef %5)
  %6 = load i64, ptr %reporting_level_upper_bound.addr, align 8
  %cmp1 = icmp sgt i64 %call, %6
  store i1 %cmp1, ptr %retval, align 1
  br label %return

return:                                           ; preds = %if.end, %if.then
  %7 = load i1, ptr %retval, align 1
  ret i1 %7
}

; Function Attrs: nounwind uwtable
define internal zeroext i1 @has_next(ptr noundef %iter) #0 {
entry:
  %iter.addr = alloca ptr, align 8
  store ptr %iter, ptr %iter.addr, align 8
  %0 = load ptr, ptr %iter.addr, align 8
  %cumulative_count = getelementptr inbounds %struct.hdr_iter, ptr %0, i32 0, i32 4
  %1 = load i64, ptr %cumulative_count, align 8
  %2 = load ptr, ptr %iter.addr, align 8
  %total_count = getelementptr inbounds %struct.hdr_iter, ptr %2, i32 0, i32 2
  %3 = load i64, ptr %total_count, align 8
  %cmp = icmp slt i64 %1, %3
  ret i1 %cmp
}

; Function Attrs: nounwind uwtable
define internal zeroext i1 @log_iter_next(ptr noundef %iter) #0 {
entry:
  %retval = alloca i1, align 1
  %iter.addr = alloca ptr, align 8
  %logarithmic = alloca ptr, align 8
  store ptr %iter, ptr %iter.addr, align 8
  %0 = load ptr, ptr %iter.addr, align 8
  %specifics = getelementptr inbounds %struct.hdr_iter, ptr %0, i32 0, i32 11
  store ptr %specifics, ptr %logarithmic, align 8
  %1 = load ptr, ptr %logarithmic, align 8
  %count_added_in_this_iteration_step = getelementptr inbounds %struct.hdr_iter_log, ptr %1, i32 0, i32 1
  store i64 0, ptr %count_added_in_this_iteration_step, align 8
  %2 = load ptr, ptr %iter.addr, align 8
  %call = call zeroext i1 @has_next(ptr noundef %2)
  br i1 %call, label %if.then, label %lor.lhs.false

lor.lhs.false:                                    ; preds = %entry
  %3 = load ptr, ptr %iter.addr, align 8
  %4 = load ptr, ptr %logarithmic, align 8
  %next_value_reporting_level_lowest_equivalent = getelementptr inbounds %struct.hdr_iter_log, ptr %4, i32 0, i32 3
  %5 = load i64, ptr %next_value_reporting_level_lowest_equivalent, align 8
  %call1 = call zeroext i1 @next_value_greater_than_reporting_level_upper_bound(ptr noundef %3, i64 noundef %5)
  br i1 %call1, label %if.then, label %if.end12

if.then:                                          ; preds = %lor.lhs.false, %entry
  br label %do.body

do.body:                                          ; preds = %do.cond, %if.then
  %6 = load ptr, ptr %iter.addr, align 8
  %value = getelementptr inbounds %struct.hdr_iter, ptr %6, i32 0, i32 5
  %7 = load i64, ptr %value, align 8
  %8 = load ptr, ptr %logarithmic, align 8
  %next_value_reporting_level_lowest_equivalent2 = getelementptr inbounds %struct.hdr_iter_log, ptr %8, i32 0, i32 3
  %9 = load i64, ptr %next_value_reporting_level_lowest_equivalent2, align 8
  %cmp = icmp sge i64 %7, %9
  br i1 %cmp, label %if.then3, label %if.end

if.then3:                                         ; preds = %do.body
  %10 = load ptr, ptr %iter.addr, align 8
  %11 = load ptr, ptr %logarithmic, align 8
  %next_value_reporting_level = getelementptr inbounds %struct.hdr_iter_log, ptr %11, i32 0, i32 2
  %12 = load i64, ptr %next_value_reporting_level, align 8
  call void @update_iterated_values(ptr noundef %10, i64 noundef %12)
  %13 = load ptr, ptr %logarithmic, align 8
  %log_base = getelementptr inbounds %struct.hdr_iter_log, ptr %13, i32 0, i32 0
  %14 = load double, ptr %log_base, align 8
  %conv = fptosi double %14 to i64
  %15 = load ptr, ptr %logarithmic, align 8
  %next_value_reporting_level4 = getelementptr inbounds %struct.hdr_iter_log, ptr %15, i32 0, i32 2
  %16 = load i64, ptr %next_value_reporting_level4, align 8
  %mul = mul nsw i64 %16, %conv
  store i64 %mul, ptr %next_value_reporting_level4, align 8
  %17 = load ptr, ptr %iter.addr, align 8
  %h = getelementptr inbounds %struct.hdr_iter, ptr %17, i32 0, i32 0
  %18 = load ptr, ptr %h, align 8
  %19 = load ptr, ptr %logarithmic, align 8
  %next_value_reporting_level5 = getelementptr inbounds %struct.hdr_iter_log, ptr %19, i32 0, i32 2
  %20 = load i64, ptr %next_value_reporting_level5, align 8
  %call6 = call i64 @lowest_equivalent_value(ptr noundef %18, i64 noundef %20)
  %21 = load ptr, ptr %logarithmic, align 8
  %next_value_reporting_level_lowest_equivalent7 = getelementptr inbounds %struct.hdr_iter_log, ptr %21, i32 0, i32 3
  store i64 %call6, ptr %next_value_reporting_level_lowest_equivalent7, align 8
  store i1 true, ptr %retval, align 1
  br label %return

if.end:                                           ; preds = %do.body
  %22 = load ptr, ptr %iter.addr, align 8
  %call8 = call zeroext i1 @move_next(ptr noundef %22)
  br i1 %call8, label %if.end10, label %if.then9

if.then9:                                         ; preds = %if.end
  store i1 true, ptr %retval, align 1
  br label %return

if.end10:                                         ; preds = %if.end
  %23 = load ptr, ptr %iter.addr, align 8
  %count = getelementptr inbounds %struct.hdr_iter, ptr %23, i32 0, i32 3
  %24 = load i64, ptr %count, align 8
  %25 = load ptr, ptr %logarithmic, align 8
  %count_added_in_this_iteration_step11 = getelementptr inbounds %struct.hdr_iter_log, ptr %25, i32 0, i32 1
  %26 = load i64, ptr %count_added_in_this_iteration_step11, align 8
  %add = add nsw i64 %26, %24
  store i64 %add, ptr %count_added_in_this_iteration_step11, align 8
  br label %do.cond

do.cond:                                          ; preds = %if.end10
  br i1 true, label %do.body, label %do.end

do.end:                                           ; preds = %do.cond
  br label %if.end12

if.end12:                                         ; preds = %do.end, %lor.lhs.false
  store i1 false, ptr %retval, align 1
  br label %return

return:                                           ; preds = %if.end12, %if.then9, %if.then3
  %27 = load i1, ptr %retval, align 1
  ret i1 %27
}