; Function Attrs: nofree norecurse nosync nounwind memory(read, argmem: readwrite, inaccessiblemem: none) uwtable
define internal noundef zeroext i1 @log_iter_next(ptr nocapture noundef %iter) #1 {
entry:
  %specifics = getelementptr inbounds i8, ptr %iter, i64 88
  %count_added_in_this_iteration_step = getelementptr inbounds i8, ptr %iter, i64 96
  store i64 0, ptr %count_added_in_this_iteration_step, align 8
  %0 = getelementptr i8, ptr %iter, i64 16
  %iter.val = load i64, ptr %0, align 8
  %1 = getelementptr i8, ptr %iter, i64 32
  %iter.val16 = load i64, ptr %1, align 8
  %cmp.i = icmp slt i64 %iter.val16, %iter.val
  br i1 %cmp.i, label %entry.if.then_crit_edge, label %lor.lhs.false

entry.if.then_crit_edge:                          ; preds = %entry
  %next_value_reporting_level_lowest_equivalent2.phi.trans.insert = getelementptr inbounds i8, ptr %iter, i64 112
  %.pre = load i64, ptr %next_value_reporting_level_lowest_equivalent2.phi.trans.insert, align 8
  br label %if.then

lor.lhs.false:                                    ; preds = %entry
  %iter.val17 = load ptr, ptr %iter, align 8
  %2 = getelementptr i8, ptr %iter, i64 8
  %iter.val18 = load i32, ptr %2, align 8
  %counts_len.i = getelementptr inbounds i8, ptr %iter.val17, i64 80
  %3 = load i32, ptr %counts_len.i, align 8
  %cmp.not.i = icmp sgt i32 %3, %iter.val18
  br i1 %cmp.not.i, label %next_value_greater_than_reporting_level_upper_bound.exit, label %return

next_value_greater_than_reporting_level_upper_bound.exit: ; preds = %lor.lhs.false
  %next_value_reporting_level_lowest_equivalent = getelementptr inbounds i8, ptr %iter, i64 112
  %4 = load i64, ptr %next_value_reporting_level_lowest_equivalent, align 8
  %add.i.i = add nsw i32 %iter.val18, 1
  %sub_bucket_half_count_magnitude.i.i.i = getelementptr inbounds i8, ptr %iter.val17, i64 24
  %5 = load i32, ptr %sub_bucket_half_count_magnitude.i.i.i, align 8
  %shr.i.i.i = ashr i32 %add.i.i, %5
  %sub.i.i.i = add nsw i32 %shr.i.i.i, -1
  %sub_bucket_half_count.i.i.i = getelementptr inbounds i8, ptr %iter.val17, i64 28
  %6 = load i32, ptr %sub_bucket_half_count.i.i.i, align 4
  %sub1.i.i.i = add nsw i32 %6, -1
  %and.i.i.i = and i32 %sub1.i.i.i, %add.i.i
  %cmp.i.i.i = icmp slt i32 %shr.i.i.i, 1
  %spec.select.i.i.i = select i1 %cmp.i.i.i, i32 0, i32 %sub.i.i.i
  %add.i.i.i = select i1 %cmp.i.i.i, i32 0, i32 %6
  %spec.select8.i.i.i = add nsw i32 %and.i.i.i, %add.i.i.i
  %unit_magnitude.i.i.i = getelementptr inbounds i8, ptr %iter.val17, i64 16
  %7 = load i32, ptr %unit_magnitude.i.i.i, align 8
  %conv.i.i.i.i = sext i32 %spec.select8.i.i.i to i64
  %add.i.i.i.i = add nsw i32 %spec.select.i.i.i, %7
  %sh_prom.i.i.i.i = zext nneg i32 %add.i.i.i.i to i64
  %shl.i.i.i.i = shl i64 %conv.i.i.i.i, %sh_prom.i.i.i.i
  %cmp1.i = icmp sgt i64 %shl.i.i.i.i, %4
  br i1 %cmp1.i, label %if.then, label %return

if.then:                                          ; preds = %entry.if.then_crit_edge, %next_value_greater_than_reporting_level_upper_bound.exit
  %8 = phi i64 [ %.pre, %entry.if.then_crit_edge ], [ %4, %next_value_greater_than_reporting_level_upper_bound.exit ]
  %value = getelementptr inbounds i8, ptr %iter, i64 40
  %next_value_reporting_level_lowest_equivalent2 = getelementptr inbounds i8, ptr %iter, i64 112
  %9 = load i64, ptr %value, align 8
  %cmp.not23 = icmp slt i64 %9, %8
  br i1 %cmp.not23, label %if.end.lr.ph, label %if.then3

if.end.lr.ph:                                     ; preds = %if.then
  %count = getelementptr inbounds i8, ptr %iter, i64 24
  br label %if.end

if.then3:                                         ; preds = %if.end10, %if.then
  %next_value_reporting_level = getelementptr inbounds i8, ptr %iter, i64 104
  %10 = load i64, ptr %next_value_reporting_level, align 8
  %value_iterated_to.i = getelementptr inbounds i8, ptr %iter, i64 80
  %11 = load i64, ptr %value_iterated_to.i, align 8
  %value_iterated_from.i = getelementptr inbounds i8, ptr %iter, i64 72
  store i64 %11, ptr %value_iterated_from.i, align 8
  store i64 %10, ptr %value_iterated_to.i, align 8
  %12 = load double, ptr %specifics, align 8
  %conv = fptosi double %12 to i64
  %mul = mul nsw i64 %10, %conv
  store i64 %mul, ptr %next_value_reporting_level, align 8
  %13 = load ptr, ptr %iter, align 8
  %sub_bucket_mask.i.i = getelementptr inbounds i8, ptr %13, i64 32
  %14 = load i64, ptr %sub_bucket_mask.i.i, align 8
  %or.i.i = or i64 %14, %mul
  %15 = tail call i64 @llvm.ctlz.i64(i64 %or.i.i, i1 true), !range !5
  %cast.i.i.i = trunc i64 %15 to i32
  %sub_bucket_half_count_magnitude.i.i = getelementptr inbounds i8, ptr %13, i64 24
  %16 = load i32, ptr %sub_bucket_half_count_magnitude.i.i, align 8
  %17 = add i32 %16, %cast.i.i.i
  %add.i.i19 = sub i32 63, %17
  %sh_prom.i.i = zext nneg i32 %add.i.i19 to i64
  %shr.i.i = ashr i64 %mul, %sh_prom.i.i
  %sext.i = shl i64 %shr.i.i, 32
  %conv.i5.i = ashr exact i64 %sext.i, 32
  %shl.i.i = shl i64 %conv.i5.i, %sh_prom.i.i
  store i64 %shl.i.i, ptr %next_value_reporting_level_lowest_equivalent2, align 8
  br label %return

if.end:                                           ; preds = %if.end.lr.ph, %if.end10
  %call8 = tail call fastcc zeroext i1 @move_next(ptr noundef nonnull %iter)
  br i1 %call8, label %if.end10, label %return

if.end10:                                         ; preds = %if.end
  %18 = load i64, ptr %count, align 8
  %19 = load i64, ptr %count_added_in_this_iteration_step, align 8
  %add = add nsw i64 %19, %18
  store i64 %add, ptr %count_added_in_this_iteration_step, align 8
  %20 = load i64, ptr %value, align 8
  %21 = load i64, ptr %next_value_reporting_level_lowest_equivalent2, align 8
  %cmp.not = icmp slt i64 %20, %21
  br i1 %cmp.not, label %if.end, label %if.then3

return:                                           ; preds = %if.end, %lor.lhs.false, %next_value_greater_than_reporting_level_upper_bound.exit, %if.then3
  %retval.0 = phi i1 [ true, %if.then3 ], [ false, %next_value_greater_than_reporting_level_upper_bound.exit ], [ false, %lor.lhs.false ], [ true, %if.end ]
  ret i1 %retval.0
}